
beep.elf：     文件格式 elf32-littlearm


Disassembly of section .text:

87800000 <_start>:
87800000:	e10f0000 	mrs	r0, CPSR
87800004:	e200001f 	and	r0, r0, #31
87800008:	e3800013 	orr	r0, r0, #19
8780000c:	e129f000 	msr	CPSR_fc, r0
87800010:	e51fd000 	ldr	sp, [pc, #-0]	; 87800018 <_start+0x18>
87800014:	ea00005d 	b	87800190 <__main_from_arm>
87800018:	80200000 	eorhi	r0, r0, r0
8780001c:	00001e41 	andeq	r1, r0, r1, asr #28
87800020:	61656100 	cmnvs	r5, r0, lsl #2
87800024:	01006962 	tsteq	r0, r2, ror #18
87800028:	00000014 	andeq	r0, r0, r4, lsl r0
8780002c:	412d3705 	teqmi	sp, r5, lsl #14
87800030:	070a0600 	streq	r0, [sl, -r0, lsl #12]
87800034:	09010841 	stmdbeq	r1, {r0, r6, fp}
87800038:	00040a02 	andeq	r0, r4, r2, lsl #20

8780003c <clk_enable>:
8780003c:	b4f0      	push	{r4, r5, r6, r7}
8780003e:	f244 0078 	movw	r0, #16504	; 0x4078
87800042:	f244 0768 	movw	r7, #16488	; 0x4068
87800046:	f244 066c 	movw	r6, #16492	; 0x406c
8780004a:	f244 0570 	movw	r5, #16496	; 0x4070
8780004e:	f244 0474 	movw	r4, #16500	; 0x4074
87800052:	f244 017c 	movw	r1, #16508	; 0x407c
87800056:	f44f 4281 	mov.w	r2, #16512	; 0x4080
8780005a:	f04f 33ff 	mov.w	r3, #4294967295	; 0xffffffff
8780005e:	f2c0 270c 	movt	r7, #524	; 0x20c
87800062:	f2c0 260c 	movt	r6, #524	; 0x20c
87800066:	f2c0 250c 	movt	r5, #524	; 0x20c
8780006a:	f2c0 240c 	movt	r4, #524	; 0x20c
8780006e:	f2c0 200c 	movt	r0, #524	; 0x20c
87800072:	f2c0 210c 	movt	r1, #524	; 0x20c
87800076:	f2c0 220c 	movt	r2, #524	; 0x20c
8780007a:	603b      	str	r3, [r7, #0]
8780007c:	6033      	str	r3, [r6, #0]
8780007e:	602b      	str	r3, [r5, #0]
87800080:	6023      	str	r3, [r4, #0]
87800082:	6003      	str	r3, [r0, #0]
87800084:	bcf0      	pop	{r4, r5, r6, r7}
87800086:	600b      	str	r3, [r1, #0]
87800088:	6013      	str	r3, [r2, #0]
8780008a:	4770      	bx	lr

8780008c <led_init>:
8780008c:	2068      	movs	r0, #104	; 0x68
8780008e:	f44f 713d 	mov.w	r1, #756	; 0x2f4
87800092:	f24c 0204 	movw	r2, #49156	; 0xc004
87800096:	f44f 4340 	mov.w	r3, #49152	; 0xc000
8780009a:	b4f0      	push	{r4, r5, r6, r7}
8780009c:	f2c0 200e 	movt	r0, #526	; 0x20e
878000a0:	2705      	movs	r7, #5
878000a2:	f241 06b0 	movw	r6, #4272	; 0x10b0
878000a6:	2508      	movs	r5, #8
878000a8:	2400      	movs	r4, #0
878000aa:	f2c0 210e 	movt	r1, #526	; 0x20e
878000ae:	f2c0 2209 	movt	r2, #521	; 0x209
878000b2:	f2c0 2309 	movt	r3, #521	; 0x209
878000b6:	6007      	str	r7, [r0, #0]
878000b8:	600e      	str	r6, [r1, #0]
878000ba:	6015      	str	r5, [r2, #0]
878000bc:	601c      	str	r4, [r3, #0]
878000be:	bcf0      	pop	{r4, r5, r6, r7}
878000c0:	4770      	bx	lr
878000c2:	bf00      	nop

878000c4 <led_control>:
878000c4:	b158      	cbz	r0, 878000de <led_control+0x1a>
878000c6:	2801      	cmp	r0, #1
878000c8:	d108      	bne.n	878000dc <led_control+0x18>
878000ca:	f44f 4340 	mov.w	r3, #49152	; 0xc000
878000ce:	f2c0 2309 	movt	r3, #521	; 0x209
878000d2:	681a      	ldr	r2, [r3, #0]
878000d4:	f042 0208 	orr.w	r2, r2, #8
878000d8:	601a      	str	r2, [r3, #0]
878000da:	4770      	bx	lr
878000dc:	4770      	bx	lr
878000de:	f44f 4340 	mov.w	r3, #49152	; 0xc000
878000e2:	f2c0 2309 	movt	r3, #521	; 0x209
878000e6:	681a      	ldr	r2, [r3, #0]
878000e8:	f022 0208 	bic.w	r2, r2, #8
878000ec:	601a      	str	r2, [r3, #0]
878000ee:	4770      	bx	lr

878000f0 <delay_short>:
878000f0:	b082      	sub	sp, #8
878000f2:	9001      	str	r0, [sp, #4]
878000f4:	9b01      	ldr	r3, [sp, #4]
878000f6:	1e5a      	subs	r2, r3, #1
878000f8:	9201      	str	r2, [sp, #4]
878000fa:	2b00      	cmp	r3, #0
878000fc:	d1fa      	bne.n	878000f4 <delay_short+0x4>
878000fe:	b002      	add	sp, #8
87800100:	4770      	bx	lr
87800102:	bf00      	nop

87800104 <delay>:
87800104:	b082      	sub	sp, #8
87800106:	9001      	str	r0, [sp, #4]
87800108:	9b01      	ldr	r3, [sp, #4]
8780010a:	1e5a      	subs	r2, r3, #1
8780010c:	9201      	str	r2, [sp, #4]
8780010e:	b153      	cbz	r3, 87800126 <delay+0x22>
87800110:	f240 73ff 	movw	r3, #2047	; 0x7ff
87800114:	461a      	mov	r2, r3
87800116:	3b01      	subs	r3, #1
87800118:	2a00      	cmp	r2, #0
8780011a:	d1fb      	bne.n	87800114 <delay+0x10>
8780011c:	9b01      	ldr	r3, [sp, #4]
8780011e:	1e5a      	subs	r2, r3, #1
87800120:	9201      	str	r2, [sp, #4]
87800122:	2b00      	cmp	r3, #0
87800124:	d1f4      	bne.n	87800110 <delay+0xc>
87800126:	b002      	add	sp, #8
87800128:	4770      	bx	lr
8780012a:	bf00      	nop

8780012c <beep_init>:
8780012c:	b470      	push	{r4, r5, r6}
8780012e:	f44f 702b 	mov.w	r0, #684	; 0x2ac
87800132:	2420      	movs	r4, #32
87800134:	f24c 0104 	movw	r1, #49156	; 0xc004
87800138:	f44f 4340 	mov.w	r3, #49152	; 0xc000
8780013c:	f2c0 240e 	movt	r4, #526	; 0x20e
87800140:	2605      	movs	r6, #5
87800142:	f241 05b0 	movw	r5, #4272	; 0x10b0
87800146:	2202      	movs	r2, #2
87800148:	f2c0 200e 	movt	r0, #526	; 0x20e
8780014c:	f2c0 210a 	movt	r1, #522	; 0x20a
87800150:	f2c0 230a 	movt	r3, #522	; 0x20a
87800154:	6026      	str	r6, [r4, #0]
87800156:	6005      	str	r5, [r0, #0]
87800158:	600a      	str	r2, [r1, #0]
8780015a:	bc70      	pop	{r4, r5, r6}
8780015c:	601a      	str	r2, [r3, #0]
8780015e:	4770      	bx	lr

87800160 <beep_control>:
87800160:	b158      	cbz	r0, 8780017a <beep_control+0x1a>
87800162:	2801      	cmp	r0, #1
87800164:	d108      	bne.n	87800178 <beep_control+0x18>
87800166:	f44f 4340 	mov.w	r3, #49152	; 0xc000
8780016a:	f2c0 230a 	movt	r3, #522	; 0x20a
8780016e:	681a      	ldr	r2, [r3, #0]
87800170:	f042 0202 	orr.w	r2, r2, #2
87800174:	601a      	str	r2, [r3, #0]
87800176:	4770      	bx	lr
87800178:	4770      	bx	lr
8780017a:	f44f 4340 	mov.w	r3, #49152	; 0xc000
8780017e:	f2c0 230a 	movt	r3, #522	; 0x20a
87800182:	681a      	ldr	r2, [r3, #0]
87800184:	f022 0202 	bic.w	r2, r2, #2
87800188:	601a      	str	r2, [r3, #0]
8780018a:	4770      	bx	lr
8780018c:	0000      	movs	r0, r0
	...

87800190 <__main_from_arm>:
87800190:	e51ff004 	ldr	pc, [pc, #-4]	; 87800194 <__main_from_arm+0x4>
87800194:	87800199 			; <UNDEFINED> instruction: 0x87800199

Disassembly of section .text.startup:

87800198 <main>:
87800198:	b508      	push	{r3, lr}
8780019a:	f7ff ff4f 	bl	8780003c <clk_enable>
8780019e:	f7ff ff75 	bl	8780008c <led_init>
878001a2:	f7ff ffc3 	bl	8780012c <beep_init>
878001a6:	2000      	movs	r0, #0
878001a8:	f7ff ff8c 	bl	878000c4 <led_control>
878001ac:	2000      	movs	r0, #0
878001ae:	f7ff ffd7 	bl	87800160 <beep_control>
878001b2:	f44f 70fa 	mov.w	r0, #500	; 0x1f4
878001b6:	f7ff ffa5 	bl	87800104 <delay>
878001ba:	2001      	movs	r0, #1
878001bc:	f7ff ff82 	bl	878000c4 <led_control>
878001c0:	2001      	movs	r0, #1
878001c2:	f7ff ffcd 	bl	87800160 <beep_control>
878001c6:	f44f 70fa 	mov.w	r0, #500	; 0x1f4
878001ca:	f7ff ff9b 	bl	87800104 <delay>
878001ce:	e7ea      	b.n	878001a6 <main+0xe>

Disassembly of section .comment:

00000000 <.comment>:
   0:	3a434347 	bcc	10d0d24 <_start-0x8672f2dc>
   4:	694c2820 	stmdbvs	ip, {r5, fp, sp}^
   8:	6f72616e 	svcvs	0x0072616e
   c:	43434720 	movtmi	r4, #14112	; 0x3720
  10:	392e3420 	stmdbcc	lr!, {r5, sl, ip, sp}
  14:	3130322d 	teqcc	r0, sp, lsr #4
  18:	31302e37 	teqcc	r0, r7, lsr lr
  1c:	2e342029 	cdpcs	0, 3, cr2, cr4, cr9, {1}
  20:	00342e39 	eorseq	r2, r4, r9, lsr lr

Disassembly of section .ARM.attributes:

00000000 <.ARM.attributes>:
   0:	00003041 	andeq	r3, r0, r1, asr #32
   4:	61656100 	cmnvs	r5, r0, lsl #2
   8:	01006962 	tsteq	r0, r2, ror #18
   c:	00000026 	andeq	r0, r0, r6, lsr #32
  10:	412d3705 	teqmi	sp, r5, lsl #14
  14:	070a0600 	streq	r0, [sl, -r0, lsl #12]
  18:	09010841 	stmdbeq	r1, {r0, r6, fp}
  1c:	12040a02 	andne	r0, r4, #8192	; 0x2000
  20:	15011404 	strne	r1, [r1, #-1028]	; 0x404
  24:	18031701 	stmdane	r3, {r0, r8, r9, sl, ip}
  28:	1b021a01 	blne	86834 <_start-0x877797cc>
  2c:	22011c03 	andcs	r1, r1, #768	; 0x300
  30:	地址 0x0000000000000030 越界。

